(lp0
I55267
aI55271
aI55275
aI55283
aI55287
aI55291
aI55295
aI55307
aI55315
aI55319
aI55323
aI55327
aI55331
aI55335
aI55339
aI55343
aI55347
aI55351
aI55355
aI55359
aI55363
aI55367
aI55371
aI55375
aI55379
aI55383
aI55387
aI55391
aI55399
aI55403
aI55407
aI55411
aI55415
aI55419
aI55423
aI55427
aI55431
aI55435
aI55439
aI55443
aI55447
aI55451
aI55455
aI55463
aI55471
aI55475
aI55479
aI55483
aI55487
aI55491
aI55503
aI55507
aI55511
aI55515
aI55523
aI55527
aI55531
aI55535
aI55539
aI55543
aI55547
aI55551
aI55555
aI55559
aI55563
aI55567
aI55571
aI55575
aI55579
aI55583
aI55587
aI55591
aI55595
aI55599
aI55603
aI55607
aI55611
aI55615
aI55619
aI55623
aI55627
aI55643
aI55651
aI55655
aI55659
aI55663
aI55667
aI55671
aI55675
aI55679
aI55687
aI55703
aI55707
aI55719
aI55755
aI55759
aI55763
aI55771
aI55779
aI55783
aI55803
aI55807
aI55811
aI55815
aI55819
aI55823
aI55827
aI55831
aI55835
aI55839
aI55843
aI55847
aI55851
aI55855
aI55859
aI55863
aI55867
aI55871
aI55875
aI55879
aI55883
aI55887
aI55891
aI55895
aI55899
aI55903
aI55907
aI55911
aI55915
aI55919
aI55923
aI55927
aI55931
aI55935
aI55943
aI55947
aI55951
aI55955
aI55959
aI55963
aI55967
aI55971
aI55975
aI55979
aI55987
aI55991
aI55995
aI55999
aI56003
aI56007
aI56011
aI56015
aI56019
aI56023
aI56029
aI56037
aI56041
aI56049
aI56057
aI56061
aI56065
aI56069
aI56073
aI56077
aI56105
aI56109
aI56113
aI56117
aI56121
aI56125
aI56129
aI56133
aI56137
aI56141
aI56145
aI56149
aI56153
aI56161
aI56165
aI56169
aI56173
aI56177
aI56181
aI56185
aI56189
aI56193
aI56197
aI56201
aI56205
aI56209
aI56213
aI56217
aI56221
aI56225
aI56229
aI56233
aI56241
aI56245
aI56257
aI56261
aI56269
aI56273
aI56277
aI56281
aI56285
aI56293
aI56297
aI56301
aI56305
aI56325
aI56329
aI56333
aI56337
aI56341
aI56345
aI56349
aI56353
aI56357
aI56369
aI56373
aI56385
aI56389
aI56393
aI56397
aI56401
aI56405
aI56409
aI56413
aI56417
aI56549
aI56553
aI56557
aI56561
aI56565
aI56569
aI56573
aI56577
aI56593
aI56597
aI56601
aI56605
aI56609
aI56621
aI56625
aI56629
aI56633
aI56709
aI56713
aI56717
aI56721
aI56761
aI56765
aI56769
aI78023
aI78031
aI78035
aI78039
aI78043
aI78047
aI78051
aI78055
aI78063
aI78071
aI78075
aI78079
aI78083
aI78091
aI78103
aI78107
aI78111
aI78119
aI78127
aI78143
aI78147
aI78151
aI78155
aI78163
aI78171
aI78175
aI78179
aI78187
aI78191
aI78195
aI78207
aI78215
aI78231
aI78239
aI78247
aI78327
aI78335
aI78343
aI78347
aI78351
aI78359
aI78371
aI78383
aI78391
aI78395
aI78403
aI78407
aI78411
aI78415
aI78419
aI78423
aI78427
aI78431
aI78435
aI78439
aI78443
aI78583
aI78587
aI78591
aI78595
aI78599
aI78603
aI78611
aI78619
aI78627
aI78631
aI78635
aI78639
aI78643
aI78647
aI78651
aI78655
aI78659
aI78663
aI78667
aI78675
aI78687
aI78691
aI78695
aI78715
aI78719
aI78731
aI78739
aI78751
aI78759
aI78771
aI78775
aI78779
aI78783
aI78791
aI78795
aI78807
aI78815
aI78823
aI78839
aI78843
aI78859
aI78867
aI78875
aI78879
aI78891
aI78895
aI78899
aI78903
aI78907
aI78911
aI78919
aI78923
aI78927
aI78931
aI78935
aI78939
aI78947
aI78955
aI78959
aI78967
aI78975
aI78979
aI78995
aI78999
aI79003
aI79007
aI79011
aI79019
aI79023
aI79027
aI79039
aI79043
aI79047
aI79051
aI79059
aI79067
aI79071
aI79075
aI79079
aI79103
aI79115
aI79131
aI79139
aI79143
aI79147
aI79151
aI79159
aI79163
aI79167
aI79171
aI79175
aI79179
aI79183
aI79187
aI79199
aI79203
aI79207
aI79211
aI79219
aI79231
aI79235
aI79239
aI79243
aI79247
aI79251
aI79259
aI79263
aI79267
aI79271
aI79275
aI79283
aI79287
aI79291
aI79299
aI79303
aI79307
aI79315
aI79323
aI79331
aI79335
aI79339
aI79343
aI79347
aI79351
aI79355
aI79359
aI79367
aI79371
aI79375
aI79379
aI79383
aI79387
aI79391
aI79395
aI79399
aI79403
aI79407
aI79411
aI79419
aI79427
aI79431
aI79439
aI79443
aI79451
aI79459
aI79463
aI79467
aI79471
aI79479
aI79483
aI79487
aI79495
aI79499
aI79507
aI79511
aI79519
aI79523
aI79527
aI79531
aI79535
aI79539
aI79543
aI79547
aI79551
aI79555
aI79559
aI79563
aI79567
aI79571
aI79575
aI79579
aI79583
aI79587
aI79591
aI79595
aI79603
aI79607
aI79619
aI79627
aI79631
aI79639
aI79643
aI79651
aI79659
aI79667
aI79671
aI79679
aI79687
aI79691
aI79699
aI79707
aI79711
aI79715
aI79723
aI79731
aI79735
aI79743
aI79751
aI79759
aI79767
aI79775
aI79779
aI79783
aI79787
aI79795
aI79807
aI79815
aI79823
aI79831
aI79835
aI79843
aI79847
aI79851
aI79855
aI79859
aI79863
aI79867
aI79871
aI79875
aI79879
aI79883
aI79891
aI79899
aI79903
aI79911
aI79919
aI79927
aI79931
aI79967
aI79975
aI79983
aI79987
aI79991
aI79995
aI80003
aI80011
aI80015
aI80019
aI80023
aI80027
aI80031
aI80035
aI80039
aI80051
aI80059
aI80071
aI80079
aI80083
aI80091
aI80099
aI80107
aI80111
aI80119
aI80123
aI80127
aI80135
aI80143
aI80147
aI80151
aI80155
aI80159
aI80163
aI80175
aI80183
aI80195
aI80199
aI80203
aI80211
aI80215
aI80223
aI80227
aI80239
aI80259
aI80263
aI80267
aI80275
aI80279
aI80283
aI80287
aI80291
aI80295
aI80303
aI80307
aI80319
aI80323
aI80327
aI80331
aI80335
aI80339
aI80343
aI80359
aI80367
aI80371
aI80375
aI80383
aI80387
aI80395
aI80399
aI80407
aI80415
aI80423
aI80427
aI80431
aI80815
aI80827
aI80831
aI80835
aI80847
aI80855
aI80859
aI80863
aI80871
aI80883
aI80891
aI80895
aI80903
aI80907
aI80911
aI80919
aI80931
aI80935
aI80939
aI80947
aI80959
aI80963
aI80971
aI80975
aI80987
aI80995
aI80999
aI81007
aI81011
aI81015
aI81019
aI81023
aI81027
aI81031
aI81035
aI81039
aI81043
aI81047
aI81063
aI81067
aI81071
aI81075
aI81083
aI81087
aI81095
aI81103
aI81107
aI81119
aI81131
aI81139
aI81151
aI81155
aI81159
aI81167
aI81179
aI81183
aI81187
aI81199
aI81203
aI81211
aI81219
aI81231
aI81239
aI81243
aI81251
aI81259
aI81267
aI81271
aI81275
aI81283
aI81287
aI81295
aI81303
aI81307
aI81311
aI81315
aI81319
aI81323
aI81331
aI81335
aI81343
aI81359
aI81363
aI81371
aI81375
aI81379
aI81383
aI81387
aI81395
aI81399
aI81403
aI81407
aI81411
aI81415
aI81419
aI81423
aI81427
aI81431
aI81435
aI81439
aI81447
aI81455
aI81459
aI81467
aI81471
aI81479
aI81491
aI81499
aI81503
aI81515
aI81523
aI81535
aI81547
aI81551
aI81567
aI81571
aI81575
aI81579
aI81583
aI81587
aI81591
aI81603
aI81607
aI81615
aI81627
aI81631
aI81635
aI81639
aI81647
aI81663
aI81667
aI81671
aI81679
aI81683
aI81687
aI81695
aI81699
aI81703
aI81707
aI81711
aI81715
aI81723
aI81727
aI81731
aI81735
aI81739
aI81747
aI81755
aI81771
aI81779
aI81783
aI81787
aI81795
aI81807
aI81811
aI81815
aI81819
aI81823
aI81827
aI81831
aI81835
aI81839
aI81843
aI81851
aI81855
aI81859
aI81863
aI81867
aI81871
aI81875
aI81879
aI81883
aI81887
aI81891
aI81895
aI81899
aI81907
aI81911
aI81915
aI81919
aI81923
aI81927
aI81931
aI81935
aI81939
aI81943
aI81955
aI81959
aI81967
aI81971
aI81975
aI81979
aI81983
aI81987
aI81991
aI82003
aI82007
aI82011
aI82019
aI82023
aI82027
aI82031
aI82035
aI82051
aI82055
aI82059
aI82063
aI82067
aI82071
aI82075
aI82079
aI82083
aI82087
aI82091
aI82095
aI82099
aI82103
aI82107
aI82111
aI82115
aI82123
aI82127
aI82131
aI82139
aI82143
aI82155
aI82159
aI82163
aI82167
aI82179
aI82211
aI82219
aI82235
aI82243
aI82255
aI82259
aI82263
aI82267
aI82271
aI82303
aI82307
aI82315
aI82319
aI82323
aI82331
aI82339
aI82347
aI82359
aI82371
aI82375
aI82383
aI82387
aI82391
aI82407
aI82411
aI82415
aI82419
aI82427
aI82431
aI82439
aI82443
aI82447
aI82455
aI82459
aI82463
aI82467
aI82471
aI82475
aI82479
aI82483
aI82487
aI82491
aI82499
aI82503
aI82507
aI82511
aI82515
aI82523
aI82531
aI82539
aI82543
aI82547
aI82551
aI82563
aI82567
aI82571
aI82579
aI82587
aI82591
aI82599
aI82603
aI82607
aI82611
aI82615
aI82619
aI82623
aI82631
aI82647
aI82659
aI82663
aI82671
aI82679
aI82683
aI82691
aI82711
aI82719
aI82727
aI82743
aI82747
aI82755
aI82771
aI82787
aI82795
aI82799
aI82807
aI82811
aI82815
aI82819
aI82823
aI82827
aI82835
aI82843
aI82851
aI82855
aI82859
aI82863
aI82875
aI82879
aI82895
aI82899
aI82903
aI82907
aI82911
aI82919
aI82923
aI82927
aI82931
aI82935
aI82939
aI82943
aI82947
aI82951
aI82955
aI82959
aI82963
aI82967
aI82971
aI82975
aI82979
aI82983
aI82987
aI82991
aI82995
aI82999
aI83003
aI83011
aI83015
aI83019
aI83027
aI83031
aI83039
aI83043
aI83047
aI83051
aI83055
aI83059
aI83063
aI83067
aI83075
aI83079
aI83083
aI83087
aI83091
aI83095
aI83099
aI83103
aI83107
aI83111
aI83115
aI83119
aI83123
aI83127
aI83135
aI83143
aI83147
aI83151
aI83155
aI83159
aI83167
aI83171
aI83175
aI83179
aI83183
aI83191
aI83195
aI83199
aI83203
aI83211
aI83223
aI83227
aI83231
aI83235
aI83239
aI83243
aI83247
aI83251
aI83255
aI83263
aI83267
aI83271
aI83275
aI83279
aI83283
aI83287
aI83295
aI83299
aI83303
aI83307
aI83311
aI83315
aI83319
aI83323
aI83331
aI83339
aI83347
aI83351
aI83355
aI83359
aI83363
aI83371
aI83375
aI83379
aI83383
aI83387
aI83391
aI83395
aI83399
aI83403
aI83411
aI83415
aI83423
aI83427
aI83431
aI83435
aI83439
aI83443
aI83447
aI83451
aI83455
aI83459
aI83467
aI83471
aI83475
aI83479
aI83483
aI83487
aI83491
aI83495
aI83499
aI83503
aI83507
aI83511
aI83515
aI83519
aI83523
aI83527
aI83531
aI83535
aI83539
aI83547
aI83551
aI83555
aI83559
aI83567
aI83571
aI83575
aI83579
aI83583
aI83591
aI83595
aI83599
aI83603
aI83611
aI83615
aI83623
aI83627
aI83631
aI83639
aI83647
aI83655
aI83663
aI83673
aI83683
aI83687
aI83695
aI83703
aI83707
aI83711
aI83719
aI83723
aI83727
aI83731
aI83743
aI83747
aI83751
aI83755
aI83763
aI83767
aI83783
aI83787
aI83791
aI83795
aI83803
aI83807
aI83815
aI83823
aI83827
aI83831
aI83835
aI83839
aI83843
aI83847
aI83851
aI83855
aI83859
aI83871
aI83879
aI83883
aI83887
aI83891
aI83895
aI83899
aI83907
aI83911
aI83919
aI83923
aI83927
aI83935
aI83939
aI83943
aI83947
aI83963
aI83967
aI83971
aI83975
aI83979
aI83983
aI83987
aI83991
aI83995
aI83999
aI84003
aI84015
aI84019
aI84023
aI84027
aI84047
aI84051
aI84055
aI84059
aI84063
aI84067
aI84071
aI84075
aI84079
aI84083
aI84091
aI84107
aI84111
aI84115
aI84123
aI84127
aI84131
aI84135
aI84139
aI84143
aI84147
aI84151
aI84159
aI84165
aI84171
aI84175
aI84179
aI84183
aI84187
aI84191
aI84195
aI84199
aI84203
aI84207
aI84211
aI84215
aI84219
aI84231
aI84235
aI84239
aI84243
aI84247
aI84255
aI84263
aI84267
aI84271
aI84275
aI84283
aI84287
aI84291
aI84295
aI84327
aI84331
aI84335
aI84339
aI84343
aI84351
aI84371
aI84387
aI84391
aI84403
aI84407
aI84421
aI84427
aI84435
aI84439
aI84447
aI84451
aI84455
aI84459
aI84463
aI84469
aI84475
aI84479
aI84483
aI84487
aI84495
aI84503
aI84507
aI84515
aI84519
aI84523
aI84527
aI84531
aI84571
aI84575
aI84579
aI84587
aI84591
aI84595
aI84603
aI84607
aI84611
aI84619
aI84631
aI84635
aI84639
aI84643
aI84647
aI84651
aI84655
aI84659
aI84663
aI84667
aI84671
aI84675
aI84679
aI84691
aI84703
aI84711
aI84719
aI84723
aI84727
aI84731
aI84735
aI84739
aI84743
aI84747
aI84751
aI84755
aI84759
aI84763
aI84767
aI84771
aI84775
aI84779
aI84783
aI84787
aI84791
aI84795
aI84799
aI84803
aI84807
aI84811
aI84815
aI84819
aI84823
aI84827
aI84831
aI84835
aI84839
aI84843
aI84851
aI84855
aI84859
aI84863
aI84867
aI84871
aI84875
aI84883
aI84887
aI84891
aI84895
aI84899
aI84903
aI84907
aI84911
aI84915
aI84919
aI84923
aI84931
aI84935
aI84939
aI84943
aI84947
aI84951
aI84955
aI84959
aI84963
aI84967
aI84971
aI84975
aI84979
aI84983
aI84987
aI84995
aI84999
aI85003
aI85007
aI85011
aI85015
aI85019
aI85027
aI85039
aI85043
aI85047
aI85051
aI85055
aI85059
aI85063
aI85067
aI85071
aI85075
aI85079
aI85083
aI85087
aI85091
aI85099
aI85103
aI85111
aI85119
aI85123
aI85131
aI85135
aI85139
aI85143
aI85147
aI85163
aI85167
aI85171
aI85179
aI85187
aI85191
aI85195
aI85199
aI85207
aI85215
aI85219
aI85223
aI85227
aI85235
aI85243
aI85247
aI85255
aI85263
aI85267
aI85271
aI85275
aI85287
aI85295
aI85303
aI85311
aI85315
aI85319
aI85327
aI85335
aI85339
aI85343
aI85351
aI85355
aI85359
aI85367
aI85371
aI85379
aI85383
aI85387
aI85395
aI85399
aI85403
aI85407
aI85411
aI85415
aI85431
aI85435
aI85439
aI85443
aI85451
aI85455
aI85459
aI85467
aI85475
aI85479
aI85483
aI85491
aI85507
aI85511
aI85519
aI85523
aI85527
aI85531
aI85535
aI85539
aI85543
aI85547
aI85551
aI85563
aI85571
aI85575
aI85579
aI85583
aI85587
aI85603
aI85607
aI85615
aI85619
aI85627
aI85635
aI85639
aI85647
aI85651
aI85655
aI85659
aI85663
aI85667
aI85675
aI85679
aI85687
aI85691
aI85695
aI85699
aI85707
aI85711
aI85715
aI85719
aI85723
aI85731
aI85735
aI85739
aI85743
aI85751
aI85755
aI85759
aI85763
aI85767
aI85775
aI85783
aI85787
aI85791
aI85799
aI85807
aI85811
aI85815
aI85819
aI85827
aI85831
aI85835
aI85851
aI85855
aI85863
aI85871
aI85879
aI85883
aI85887
aI85891
aI85899
aI85903
aI85907
aI85911
aI85915
aI85919
aI85927
aI85931
aI85939
aI85943
aI85947
aI85951
aI85959
aI85975
aI85979
aI85987
aI85995
aI86003
aI86007
aI86011
aI86019
aI86027
aI86031
aI86039
aI86043
aI86047
aI86055
aI86059
aI86063
aI86067
aI86071
aI86075
aI86079
aI86083
aI86087
aI86091
aI86095
aI86099
aI86103
aI86107
aI86111
aI86115
aI86119
aI86123
aI86127
aI86131
aI86135
aI86139
aI86143
aI86147
aI86151
aI86155
aI86163
aI86167
aI86171
aI86175
aI86179
aI86187
aI86191
aI86195
aI86199
aI86203
aI86207
aI86215
aI86219
aI86223
aI86227
aI86231
aI86239
aI86243
aI86247
aI86255
aI86263
aI86267
aI86275
aI86279
aI86283
aI86287
aI86291
aI86299
aI86307
aI86319
aI86327
aI86331
aI86339
aI86347
aI86359
aI86367
aI86371
aI86375
aI86379
aI86387
aI86391
aI86395
aI86403
aI86407
aI86411
aI86415
aI86423
aI86427
aI86431
aI86439
aI86447
aI86455
aI86459
aI86475
aI86479
aI86483
aI86491
aI86499
aI86547
aI86555
aI86563
aI86571
aI86575
aI86583
aI86591
aI86595
aI86607
aI86619
aI86623
aI86627
aI86631
aI86635
aI86643
aI86647
aI86651
aI86659
aI86663
aI86675
aI86679
aI86687
aI86691
aI86695
aI86703
aI86711
aI86715
aI86723
aI86727
aI86735
aI86743
aI86751
aI86759
aI86763
aI86767
aI86775
aI86783
aI86795
aI86803
aI86811
aI86827
aI86835
aI86839
aI86855
aI86859
aI86863
aI86867
aI86871
aI86879
aI86887
aI86895
aI86903
aI86907
aI86911
aI86915
aI86919
aI86923
aI86927
aI86931
aI86935
aI86939
aI86943
aI86947
aI86951
aI86959
aI86963
aI86967
aI86971
aI86979
aI86987
aI86995
aI86999
aI87003
aI87007
aI87011
aI87015
aI87019
aI87023
aI87027
aI87031
aI87035
aI87039
aI87043
aI87047
aI87051
aI87055
aI87059
aI87063
aI87067
aI87071
aI87075
aI87079
aI87083
aI87087
aI87091
aI87095
aI87099
aI87103
aI87107
aI87111
aI87115
aI87119
aI87127
aI87131
aI87135
aI87139
aI87143
aI87151
aI87155
aI87159
aI87163
aI87167
aI87171
aI87179
aI87183
aI87187
aI87191
aI87199
aI87203
aI87207
aI87215
aI87227
aI87235
aI87243
aI87247
aI87251
aI87255
aI87259
aI87263
aI87267
aI87275
aI87279
aI87283
aI87287
aI87291
aI87295
aI87299
aI87303
aI87311
aI87315
aI87319
aI87323
aI87327
aI87335
aI87339
aI87343
aI87347
aI87351
aI87355
aI87359
aI87363
aI87367
aI87375
aI87379
aI87383
aI87387
aI87403
aI87407
aI87415
aI87419
aI87423
aI87427
aI87439
aI87447
aI87451
aI87459
aI87463
aI87467
aI87475
aI87483
aI87487
aI87503
aI87507
aI87531
aI87535
aI87539
aI87543
aI87547
aI87551
aI87555
aI87559
aI87563
aI87567
aI87571
aI87575
aI87579
aI87583
aI87587
aI87591
aI87595
aI87599
aI87603
aI87607
aI87611
aI87615
aI87619
aI87623
aI87639
aI87643
aI87647
aI87651
aI87655
aI87659
aI87663
aI87667
aI87671
aI87675
aI87687
aI87691
aI87699
aI87703
aI87715
aI87719
aI87731
aI87739
aI87747
aI87755
aI87759
aI87763
aI87767
aI87775
aI87779
aI87787
aI87791
aI87795
aI87799
aI87803
aI87811
aI87819
aI87835
aI87839
aI87855
aI87859
aI87863
aI87871
aI87879
aI87883
aI87887
aI87891
aI87895
aI87903
aI87907
aI87919
aI87923
aI87927
aI87935
aI87939
aI87947
aI87951
aI87955
aI87959
aI87963
aI87975
aI87979
aI87983
aI87987
aI87991
aI87995
aI88003
aI88011
aI88015
aI88031
aI88035
aI88043
aI88047
aI88051
aI88055
aI88059
aI88063
aI88067
aI88071
aI88075
aI88083
aI88087
aI88091
aI88099
aI88103
aI88107
aI88111
aI88115
aI88123
aI88127
aI88131
aI88139
aI88147
aI88159
aI88163
aI88167
aI88171
aI88179
aI88195
aI88199
aI88207
aI88211
aI88215
aI88219
aI88223
aI88231
aI88239
aI88243
aI88251
aI88259
aI88263
aI88267
aI88275
aI88283
aI88291
aI88299
aI88303
aI88311
aI88315
aI88323
aI88327
aI88331
aI88335
aI88339
aI88343
aI88347
aI88355
aI88359
aI88363
aI88371
aI88383
aI88391
aI88395
aI88399
aI88403
aI88407
aI88415
aI88423
aI88427
aI88431
aI88439
aI88443
aI88451
aI88459
aI88463
aI88483
aI88487
aI88491
aI88499
aI88503
aI88507
aI88511
aI88515
aI88519
aI88531
aI88535
aI88539
aI88543
aI88547
aI88551
aI88555
aI88559
aI88563
aI88567
aI88571
aI88575
aI88579
aI88583
aI88587
aI88591
aI88595
aI88603
aI88623
aI88627
aI88631
aI88635
aI88639
aI88643
aI88651
aI88659
aI88663
aI88667
aI88671
aI88675
aI88679
aI88683
aI88691
aI88695
aI88699
aI88703
aI88707
aI88711
aI88715
aI88719
aI88723
aI88727
aI88731
aI88735
aI88739
aI88743
aI88747
aI88751
aI88759
aI88763
aI88767
aI88771
aI88775
aI88779
aI88783
aI88787
aI88791
aI88795
aI88799
aI88803
aI88807
aI88811
aI88815
aI88819
aI88823
aI88827
aI88831
aI88913
aI88917
aI88921
aI88925
aI88933
aI88937
aI88941
aI88945
aI88953
aI88957
aI88961
aI88969
aI88973
aI88985
aI88989
aI88997
aI89001
aI89005
aI89013
aI89017
aI89021
aI89025
aI89029
aI89033
aI89041
aI89045
aI89049
aI89053
aI89057
aI89061
aI89069
aI89077
aI89085
aI89089
aI89093
aI89097
aI89101
aI89125
aI89133
aI89141
aI89149
aI89153
aI89157
aI89161
aI89165
aI89173
aI89181
aI89185
aI89189
aI89197
aI89201
aI89205
aI89209
aI89213
aI89217
aI89225
aI89229
aI89237
aI89241
aI89245
aI89249
aI89253
aI89261
aI89265
aI89269
aI89273
aI89277
aI89281
aI89285
aI89289
aI89293
aI89297
aI89305
aI89309
aI89313
aI89317
aI89321
aI89325
aI89329
aI89333
aI89337
aI89341
aI89345
aI89349
aI89353
aI89357
aI89361
aI89365
aI89369
aI89373
aI89377
aI89381
aI89385
aI89389
aI89393
aI89397
aI89401
aI89405
aI89413
aI89425
aI89433
aI89437
aI89441
aI89453
aI89465
aI89469
aI89473
aI89485
aI89489
aI89493
aI89497
aI89501
aI89505
aI89509
aI89517
aI89521
aI89525
aI89529
aI89533
aI89537
aI89541
aI89545
aI89549
aI89557
aI89565
aI89581
aI89593
aI89601
aI89605
aI89613
aI89621
aI89629
aI89633
aI89645
aI89649
aI89653
aI89661
aI89669
aI89673
aI89681
aI89685
aI89689
aI89693
aI89701
aI89705
aI89713
aI89717
aI89721
aI89725
aI89729
aI89733
aI89737
aI89741
aI89745
aI89749
aI89757
aI89761
aI89765
aI89769
aI89773
aI89777
aI89785
aI89789
aI89793
aI89797
aI89801
aI89805
aI89809
aI89813
aI89817
aI89821
aI89825
aI89829
aI89833
aI89837
aI89841
aI89845
aI89849
aI89853
aI89857
aI89861
aI89865
aI89869
aI89873
aI89877
aI89949
aI89953
aI89969
aI89973
aI89981
aI89989
aI89997
aI90001
aI90021
aI90025
aI90033
aI90037
aI90049
aI90057
aI90065
aI90077
aI90085
aI90101
aI90109
aI90117
aI90125
aI90133
aI90141
aI90149
aI90157
aI90161
aI195647
aI197025
aI198381
aI198385
aI198389
aI198393
aI198397
aI198401
aI198405
aI198409
aI198413
aI198417
aI198421
aI198425
aI198429
aI198433
aI198437
aI198441
aI198445
aI198449
aI198453
aI198457
aI198461
aI198465
aI198469
aI198473
aI198477
aI200589
aI203729
aI203733
aI203741
aI203745
aI203757
aI203761
aI203765
aI203769
aI203773
aI203777
aI203785
aI203789
aI203805
aI203817
aI203825
aI203833
aI206603
aI208743
aI208839
aI209041
aI222311
aI222315
aI222319
aI222323
aI222331
aI222335
aI222339
aI222343
aI222347
aI222351
aI222355
aI222359
aI222363
aI222367
aI222371
aI222375
aI222379
aI222383
aI222387
aI222391
aI222395
aI222399
aI222403
aI222407
aI222411
aI222419
aI222423
aI222427
aI222431
aI222435
aI222439
aI222443
aI222447
aI222451
aI222455
aI222459
aI222463
aI222467
aI222471
aI222475
aI222479
aI222483
aI222487
aI222491
aI222495
aI222499
aI222503
aI222511
aI222515
aI222519
aI222523
aI222527
aI222531
aI222535
aI222539
aI222543
aI222547
aI222551
aI222555
aI222559
aI222563
aI222567
aI222571
aI222575
aI222579
aI222583
aI222587
aI222591
aI222595
aI222599
aI222607
aI222611
aI222615
aI222627
aI222631
aI222635
aI222639
aI222643
aI222647
aI222651
aI222655
aI222659
aI222663
aI222667
aI222671
aI222675
aI222679
aI222683
aI222687
aI222691
aI222695
aI222699
aI222703
aI222707
aI222711
aI222715
aI222719
aI222739
aI222743
aI222747
aI222751
aI222755
aI222759
aI222763
aI222767
aI222771
aI222775
aI222779
aI222783
aI222787
aI222791
aI222795
aI222799
aI222803
aI222815
aI222835
aI222855
aI222859
aI222863
aI222871
aI222879
aI222883
aI222887
aI222891
aI222895
aI222899
aI222903
aI222907
aI222911
aI222915
aI222919
aI222923
aI222927
aI222931
aI222943
aI222947
aI222951
aI222955
aI222963
aI222967
aI222971
aI222975
aI222983
aI222987
aI222991
aI222995
aI222999
aI223003
aI223007
aI223019
aI223023
aI223051
aI223055
aI223059
aI223063
aI223067
aI228707
aI228715
aI228719
aI228727
aI228731
aI228735
aI228739
aI228743
aI228747
aI228751
aI228759
aI228763
aI228767
aI228771
aI228775
aI228783
aI228787
aI228795
aI228799
aI228807
aI228811
aI228815
aI228819
aI228823
aI228827
aI228831
aI228835
aI228839
aI228843
aI228847
aI228855
aI228863
aI228871
aI228875
aI228879
aI228883
aI228887
aI228891
aI228895
aI228903
aI228915
aI228923
aI228931
aI228935
aI228939
aI228943
aI228947
aI228951
aI228967
aI228971
aI228975
aI228979
aI228983
aI228987
aI228991
aI228995
aI228999
aI229003
aI229007
aI229011
aI229015
aI229019
aI229023
aI229027
aI229031
aI229039
aI229043
aI229051
aI229055
aI229059
aI229067
aI229071
aI229075
aI229079
aI229083
aI229087
aI229095
aI229099
aI229107
aI229111
aI229119
aI229127
aI229131
aI229139
aI229143
aI229147
aI229151
aI229155
aI229159
aI229163
aI229167
aI229171
aI229175
aI229179
aI229183
aI229187
aI229191
aI235917
aI235967
aI238931
aI239211
aI239393
aI239403
aI239471
aI239699
aI239703
aI239707
aI239711
aI244107
aI244111
aI244115
aI244119
aI244123
aI244127
aI244131
aI244135
aI244139
aI244143
aI244147
aI244159
aI244163
aI244171
aI244175
aI244179
aI244183
aI244187
aI244191
aI244195
aI244199
aI244203
aI244207
aI244211
aI244219
aI244223
aI244227
aI244231
aI244235
aI244239
aI244247
aI244251
aI244255
aI244259
aI244263
aI244267
aI244279
aI244283
aI244287
aI244291
aI244295
aI244299
aI244303
aI244307
aI244311
aI244315
aI244323
aI244327
aI244331
aI244335
aI244339
aI244343
aI244347
aI244351
aI244355
aI244363
aI244367
aI244371
aI244375
aI244379
aI244383
aI244387
aI244391
aI244395
aI244399
aI244403
aI244407
aI244411
aI244423
aI244427
aI244431
aI244435
aI244439
aI244443
aI244447
aI244451
aI244455
aI244459
aI244463
aI244467
aI244471
aI244475
aI244479
aI244483
aI244487
aI244491
aI244495
aI244499
aI244503
aI244507
aI244511
aI244515
aI244519
aI244523
aI244527
aI244531
aI244535
aI247295
aI248129
aI248137
aI248149
aI248157
aI248165
aI248185
aI248193
aI248201
aI248217
aI248229
aI248237
aI248561
aI248581
aI248993
aI249013
aI249031
aI249039
aI249047
aI250267
aI250271
aI250275
aI250279
aI250283
aI250291
aI250295
aI250299
aI250303
aI250307
aI250315
aI250319
aI250323
aI250327
aI250331
aI250335
aI250339
aI250343
aI250347
aI250351
aI250355
aI250359
aI250363
aI250367
aI250371
aI250375
aI250379
aI250383
aI250387
aI250391
aI250395
aI250399
aI250403
aI250407
aI250411
aI250415
aI250419
aI250423
aI250427
aI250431
aI250435
aI250439
aI250443
aI250447
aI250451
aI250455
aI250459
aI250463
aI250467
aI250471
aI250475
aI250479
aI250483
aI250487
aI250491
aI250495
aI250499
aI250503
aI250507
aI250511
aI250515
aI250519
aI250523
aI250527
aI250531
aI250535
aI250539
aI250543
aI250547
aI253521
aI253525
aI253529
aI253533
aI253537
aI253541
aI253545
aI253553
aI253561
aI253565
aI253569
aI253573
aI253577
aI253581
aI253585
aI253589
aI253593
aI253597
aI253601
aI253605
aI253609
aI253613
aI253617
aI253621
aI253625
aI253629
aI253633
aI253637
aI253641
aI253645
aI253649
aI253657
aI253661
aI253665
aI253669
aI253673
aI253677
aI253681
aI253685
aI253689
aI253693
aI253697
aI253701
aI253705
aI253709
aI253713
aI253717
aI253721
aI253725
aI253729
aI253733
aI253737
aI253741
aI253745
aI253749
aI253753
aI253757
aI253761
aI255271
aI270057
aI270061
aI270065
aI270069
aI270073
aI270077
aI270081
aI270085
aI270089
aI271439
aI271467
aI271471
aI271475
aI271479
aI271483
aI271531
aI271543
aI271547
aI271551
aI271555
aI271559
aI271563
aI271567
aI271575
aI271583
aI271587
aI271591
aI271595
aI271599
aI271603
aI271611
aI271615
aI271619
aI271623
aI271627
aI271631
aI271647
aI271655
aI271663
aI271671
aI271683
aI271691
aI271695
aI271703
aI271707
aI271719
aI271723
aI271727
aI271731
aI271735
aI271739
aI271747
aI271755
aI271759
aI271763
aI271767
aI271771
aI271775
aI271779
aI271799
aI271807
aI271811
aI271839
aI271843
aI271847
aI271851
aI271855
aI271987
aI271991
aI271995
aI271999
aI272003
aI272007
aI272015
aI272019
aI272023
aI272027
aI272031
aI272035
aI272039
aI272043
aI272047
aI272051
aI272055
aI272059
aI272063
aI272071
aI272095
aI272099
aI272103
aI272107
aI272111
aI272119
aI272131
aI272135
aI272139
aI272143
aI272147
aI272151
aI272155
aI272159
aI272163
aI272167
aI284691
aI284695
aI284753
aI285289
aI285293
aI285297
aI285301
aI285305
aI285309
aI285313
aI285321
aI285329
aI285333
aI285337
aI285341
aI285345
aI285349
aI285353
aI285357
aI285361
aI285365
aI285369
aI285373
aI285377
aI285381
aI285385
aI285389
aI285393
aI285397
aI285401
aI285405
aI285409
aI285413
aI285417
aI285421
aI285425
aI285429
aI285433
aI285437
aI285441
aI285445
aI285449
aI285453
aI285457
aI285461
aI285465
aI285469
aI285473
aI285477
aI285481
aI285485
aI285489
aI285501
aI285505
aI285509
aI285513
aI285517
aI285525
aI285529
aI285537
aI285541
aI285545
aI285549
aI285553
aI285557
aI285561
aI285565
aI285569
aI285573
aI285577
aI285581
aI285585
aI285589
aI285593
aI285597
aI285601
aI285605
aI285609
aI285613
aI285617
aI285621
aI285625
aI285629
aI285633
aI285637
aI285641
aI285645
aI285649
aI285653
aI288423
aI288441
aI288457
aI288467
aI288499
aI288507
aI288515
aI288523
aI288541
aI288717
aI288745
aI288773
aI288791
aI288799
aI288803
aI288815
aI288971
aI289029
aI289033
aI289113
aI289125
aI289133
aI289421
aI290543
aI290765
aI290871
aI290901
aI290911
aI290993
aI291003
aI291013
aI291023
aI291033
aI291043
aI291109
aI291133
aI291267
aI291297
aI291323
aI291349
aI298137
aI303725
aI303741
aI303781
aI304533
aI305401
aI305405
aI305409
aI305413
aI305417
aI305421
aI305425
aI305429
aI305433
aI305437
aI305441
aI305445
aI305449
aI305453
aI305457
aI305461
aI305465
aI305469
aI305473
aI305477
aI305481
aI305485
aI305489
aI305497
aI305501
aI305505
aI305509
aI305513
aI305517
aI305521
aI305525
aI305529
aI305533
aI305537
aI305541
aI305545
aI305557
aI305561
aI305565
aI305569
aI305573
aI305577
aI305581
aI305585
aI305589
aI305593
aI305597
aI305601
aI305605
aI305609
aI305617
aI305621
aI305629
aI305649
aI305657
aI305661
aI305669
aI305677
aI305681
aI305685
aI305689
aI305693
aI305697
aI305705
aI305709
aI305713
aI305717
aI305721
aI305729
aI305733
aI305737
aI305741
aI305745
aI305753
aI305757
aI305761
aI305765
aI305769
aI305773
aI305777
aI305781
aI305785
aI305789
aI305793
aI305797
aI305801
aI305805
aI305809
aI305813
aI305817
aI305821
aI305825
aI305829
aI305833
aI305837
aI305849
aI305853
aI305857
aI305861
aI305865
aI305869
aI305873
aI305877
aI305885
aI305889
aI305893
aI305897
aI305905
aI305909
aI305913
aI305917
aI305921
aI305929
aI305933
aI305937
aI305941
aI305945
aI305949
aI305953
aI305957
aI305961
aI305965
aI305969
aI305981
aI305985
aI305989
aI305993
aI305997
aI306001
aI306005
aI306009
aI306013
aI306017
aI306021
aI306025
aI306033
aI306041
aI306045
aI306049
aI306053
aI306057
aI306069
aI306101
aI306105
aI306113
aI306117
aI306121
aI306125
aI306129
aI306141
aI306145
aI306149
aI306153
aI306157
aI306161
aI306165
aI306169
aI306173
aI306177
aI306181
aI306185
aI306189
aI306193
aI306197
aI306201
aI306205
aI306209
aI306213
aI306217
aI306221
aI306229
aI306233
aI306237
aI306241
aI306245
aI306249
aI306253
aI306257
aI306265
aI306269
aI306273
aI306277
aI306281
aI306289
aI306293
aI306297
aI306301
aI306305
aI306309
aI306313
aI306317
aI306321
aI306325
aI306329
aI306369
aI306373
aI306381
aI306385
aI306389
aI306393
aI306397
aI310459
aI314175
aI314179
aI314183
aI314187
aI314191
aI314195
aI314199
aI314769
aI314773
aI314793
aI314797
aI314809
aI314813
aI314817
aI314821
aI314825
aI314829
aI314833
aI314837
aI314841
aI314845
aI314849
aI314853
aI314857
aI314861
aI314869
aI314873
aI314877
aI314881
aI314885
aI314889
aI314893
aI314897
aI314905
aI314913
aI314917
aI314921
aI314925
aI314929
aI314933
aI314937
aI314941
aI314945
aI316987
aI316993
aI317199
aI319207
aI319445
aI321261
aI321265
aI321269
aI321277
aI321289
aI321293
aI321297
aI321301
aI321317
aI321321
aI321333
aI321349
aI321945
aI322321
aI322411
aI322419
aI322509
aI323225
aI323235
aI323413
aI324499
aI324507
aI324519
aI324527
aI325847
aI326055
aI326063
aI326067
aI326071
aI326075
aI326079
aI326083
aI326087
aI326095
aI326099
aI326103
aI326115
aI326119
aI326123
aI326127
aI326131
aI326135
aI327101
aI327111
aI327115
aI327127
aI327147
aI327155
aI327509
aI327519
aI327529
aI327539
aI329817
aI329821
aI329825
aI329829
aI329833
aI329837
aI329841
aI329845
aI330285
a.